; Function Attrs: nounwind uwtable
define internal fastcc void @mpegts_open_pcr_filter(ptr noundef captures(none) %0, i32 noundef range(i32 0, 8192) %1) unnamed_addr #0 {
  %3 = getelementptr inbounds nuw i8, ptr %0, i64 8
  %4 = load ptr, ptr %3, align 8, !tbaa !57
  tail call void (ptr, i32, ptr, ...) @av_log(ptr noundef %4, i32 noundef 56, ptr noundef nonnull @.str.14, i32 noundef %1, i32 noundef 2) #12
  %5 = getelementptr inbounds nuw i8, ptr %0, i64 8328
  %6 = zext nneg i32 %1 to i64
  %7 = getelementptr inbounds nuw [8192 x ptr], ptr %5, i64 0, i64 %6
  %8 = load ptr, ptr %7, align 8, !tbaa !46
  %.not.i = icmp eq ptr %8, null
  br i1 %.not.i, label %9, label %mpegts_open_filter.exit

9:                                                ; preds = %2
  %10 = tail call noalias ptr @av_mallocz(i64 noundef 88) #12
  %.not20.i = icmp eq ptr %10, null
  br i1 %.not20.i, label %mpegts_open_filter.exit, label %11

11:                                               ; preds = %9
  store ptr %10, ptr %7, align 8, !tbaa !46
  %12 = getelementptr inbounds nuw i8, ptr %10, i64 28
  store i32 2, ptr %12, align 4, !tbaa !62
  store i32 %1, ptr %10, align 8, !tbaa !63
  %13 = getelementptr inbounds nuw i8, ptr %10, i64 4
  store i32 -1, ptr %13, align 4, !tbaa !48
  %14 = getelementptr inbounds nuw i8, ptr %10, i64 8
  store i32 -1, ptr %14, align 8, !tbaa !64
  %15 = getelementptr inbounds nuw i8, ptr %10, i64 16
  store i64 -1, ptr %15, align 8, !tbaa !65
  br label %mpegts_open_filter.exit

mpegts_open_filter.exit:                          ; preds = %2, %9, %11
  ret void
}